target datalayout = "e-m:e-p270:32:32-p271:32:32-p272:64:64-i64:64-f80:128-n8:16:32:64-S128"
target triple = "x86_64-pc-linux-gnu"

@.str = private unnamed_addr constant [5 x i8] c"%d%d\00", align 1
@.str.1 = private unnamed_addr constant [3 x i8] c"%d\00", align 1
@.str.2 = private unnamed_addr constant [4 x i8] c" %d\00", align 1

; Function Attrs: noinline nounwind uwtable
define dso_local void @main() #0 {
  %1 = alloca i32, align 4
  %2 = alloca i32, align 4
  %3 = alloca i32, align 4
  %4 = alloca [100 x i32], align 16
  %5 = call i32 (i8*, ...) @__isoc99_scanf(i8* getelementptr inbounds ([5 x i8], [5 x i8]* @.str, i64 0, i64 0), i32* %3, i32* %2)
  store i32 1, i32* %1, align 4
  br label %6

6:                                                ; preds = %16, %0
  %7 = load i32, i32* %1, align 4
  %8 = load i32, i32* %3, align 4
  %9 = icmp sle i32 %7, %8
  br i1 %9, label %10, label %19

10:                                               ; preds = %6
  %11 = load i32, i32* %1, align 4
  %12 = sub nsw i32 %11, 1
  %13 = sext i32 %12 to i64
  %14 = getelementptr inbounds [100 x i32], [100 x i32]* %4, i64 0, i64 %13
  %15 = call i32 (i8*, ...) @__isoc99_scanf(i8* getelementptr inbounds ([3 x i8], [3 x i8]* @.str.1, i64 0, i64 0), i32* %14)
  br label %16

16:                                               ; preds = %10
  %17 = load i32, i32* %1, align 4
  %18 = add nsw i32 %17, 1
  store i32 %18, i32* %1, align 4
  br label %6

19:                                               ; preds = %6
  store i32 1, i32* %1, align 4
  br label %20

20:                                               ; preds = %27, %19
  %21 = load i32, i32* %1, align 4
  %22 = load i32, i32* %2, align 4
  %23 = icmp sle i32 %21, %22
  br i1 %23, label %24, label %30

24:                                               ; preds = %20
  %25 = load i32, i32* %3, align 4
  %26 = getelementptr inbounds [100 x i32], [100 x i32]* %4, i64 0, i64 0
  call void @move(i32 %25, i32* %26)
  br label %27

27:                                               ; preds = %24
  %28 = load i32, i32* %1, align 4
  %29 = add nsw i32 %28, 1
  store i32 %29, i32* %1, align 4
  br label %20

30:                                               ; preds = %20
  %31 = getelementptr inbounds [100 x i32], [100 x i32]* %4, i64 0, i64 0
  %32 = load i32, i32* %31, align 16
  %33 = call i32 (i8*, ...) @printf(i8* getelementptr inbounds ([3 x i8], [3 x i8]* @.str.1, i64 0, i64 0), i32 %32)
  store i32 2, i32* %1, align 4
  br label %34

34:                                               ; preds = %45, %30
  %35 = load i32, i32* %1, align 4
  %36 = load i32, i32* %3, align 4
  %37 = icmp sle i32 %35, %36
  br i1 %37, label %38, label %48

38:                                               ; preds = %34
  %39 = load i32, i32* %1, align 4
  %40 = sub nsw i32 %39, 1
  %41 = sext i32 %40 to i64
  %42 = getelementptr inbounds [100 x i32], [100 x i32]* %4, i64 0, i64 %41
  %43 = load i32, i32* %42, align 4
  %44 = call i32 (i8*, ...) @printf(i8* getelementptr inbounds ([4 x i8], [4 x i8]* @.str.2, i64 0, i64 0), i32 %43)
  br label %45

45:                                               ; preds = %38
  %46 = load i32, i32* %1, align 4
  %47 = add nsw i32 %46, 1
  store i32 %47, i32* %1, align 4
  br label %34

48:                                               ; preds = %34
  ret void
}

; Function Attrs: noinline nounwind uwtable
define dso_local void @move(i32 %0, i32* %1) #0 {
  %3 = alloca i32, align 4
  %4 = alloca i32*, align 8
  %5 = alloca i32, align 4
  %6 = alloca i32, align 4
  store i32 %0, i32* %3, align 4
  store i32* %1, i32** %4, align 8
  %7 = load i32*, i32** %4, align 8
  %8 = load i32, i32* %3, align 4
  %9 = sub nsw i32 %8, 1
  %10 = sext i32 %9 to i64
  %11 = getelementptr inbounds i32, i32* %7, i64 %10
  %12 = load i32, i32* %11, align 4
  store i32 %12, i32* %6, align 4
  store i32 1, i32* %5, align 4
  br label %13

13:                                               ; preds = %33, %2
  %14 = load i32, i32* %5, align 4
  %15 = load i32, i32* %3, align 4
  %16 = sub nsw i32 %15, 1
  %17 = icmp sle i32 %14, %16
  br i1 %17, label %18, label %36

18:                                               ; preds = %13
  %19 = load i32*, i32** %4, align 8
  %20 = load i32, i32* %3, align 4
  %21 = sub nsw i32 %20, 1
  %22 = load i32, i32* %5, align 4
  %23 = sub nsw i32 %21, %22
  %24 = sext i32 %23 to i64
  %25 = getelementptr inbounds i32, i32* %19, i64 %24
  %26 = load i32, i32* %25, align 4
  %27 = load i32*, i32** %4, align 8
  %28 = load i32, i32* %3, align 4
  %29 = load i32, i32* %5, align 4
  %30 = sub nsw i32 %28, %29
  %31 = sext i32 %30 to i64
  %32 = getelementptr inbounds i32, i32* %27, i64 %31
  store i32 %26, i32* %32, align 4
  br label %33

33:                                               ; preds = %18
  %34 = load i32, i32* %5, align 4
  %35 = add nsw i32 %34, 1
  store i32 %35, i32* %5, align 4
  br label %13

36:                                               ; preds = %13
  %37 = load i32, i32* %6, align 4
  %38 = load i32*, i32** %4, align 8
  %39 = getelementptr inbounds i32, i32* %38, i64 0
  store i32 %37, i32* %39, align 4
  ret void
}